target datalayout = "e-m:e-p270:32:32-p271:32:32-p272:64:64-i64:64-i128:128-f80:128-n8:16:32:64-S128"
target triple = "x86_64-pc-linux-gnu"

%"struct.Luau::Location" = type { %"struct.Luau::Position", %"struct.Luau::Position" }
%"struct.Luau::Position" = type { i32, i32 }
%"class.Luau::AstNode" = type <{ ptr, i32, %"struct.Luau::Location", [4 x i8] }>
%"class.Luau::AstNode.base" = type <{ ptr, i32, %"struct.Luau::Location" }>
%"class.std::optional.479" = type { %"struct.std::_Optional_base.480" }
%"struct.std::_Optional_base.480" = type { %"struct.std::_Optional_payload.482" }
%"struct.std::_Optional_payload.482" = type { %"struct.std::_Optional_payload_base.base.484", [7 x i8] }
%"struct.std::_Optional_payload_base.base.484" = type <{ %"union.std::_Optional_payload_base<const Luau::Type *>::_Storage", i8 }>
%"union.std::_Optional_payload_base<const Luau::Type *>::_Storage" = type { ptr }
%"class.Luau::AstExpr.base" = type { %"class.Luau::AstNode.base" }
%"struct.Luau::Inference" = type { ptr, ptr }
%"class.Luau::AstExprBinary" = type { %"class.Luau::AstExpr.base", i32, ptr, ptr }

; Function Attrs: mustprogress uwtable
define dso_local { ptr, ptr } @_ZN4Luau19ConstraintGenerator5checkERKSt10shared_ptrINS_5ScopeEEPNS_13AstExprBinaryESt8optionalIPKNS_4TypeEE(ptr noundef nonnull align 8 dereferenceable(472) %0, ptr noundef nonnull align 8 dereferenceable(16) %1, ptr noundef %2, ptr %3, i8 %4) #3 align 2 {
  %6 = alloca %"struct.Luau::Inference", align 8
  %7 = alloca %"class.std::optional.479", align 8
  %8 = alloca ptr, align 8
  %9 = alloca ptr, align 8
  %10 = alloca ptr, align 8
  %11 = alloca %"class.std::optional.479", align 8
  %12 = getelementptr inbounds nuw { ptr, i8 }, ptr %7, i32 0, i32 0
  store ptr %3, ptr %12, align 8
  %13 = getelementptr inbounds nuw { ptr, i8 }, ptr %7, i32 0, i32 1
  store i8 %4, ptr %13, align 8
  store ptr %0, ptr %8, align 8, !tbaa !22
  store ptr %1, ptr %9, align 8, !tbaa !26
  store ptr %2, ptr %10, align 8, !tbaa !1140
  %14 = load ptr, ptr %8, align 8
  %15 = load ptr, ptr %9, align 8, !tbaa !26
  %16 = load ptr, ptr %10, align 8, !tbaa !1140
  %17 = getelementptr inbounds nuw %"class.Luau::AstNode", ptr %16, i32 0, i32 2
  %18 = load ptr, ptr %10, align 8, !tbaa !1140
  %19 = getelementptr inbounds nuw %"class.Luau::AstExprBinary", ptr %18, i32 0, i32 1
  %20 = load i32, ptr %19, align 4, !tbaa !1356
  %21 = load ptr, ptr %10, align 8, !tbaa !1140
  %22 = getelementptr inbounds nuw %"class.Luau::AstExprBinary", ptr %21, i32 0, i32 2
  %23 = load ptr, ptr %22, align 8, !tbaa !1358
  %24 = load ptr, ptr %10, align 8, !tbaa !1140
  %25 = getelementptr inbounds nuw %"class.Luau::AstExprBinary", ptr %24, i32 0, i32 3
  %26 = load ptr, ptr %25, align 8, !tbaa !1359
  call void @llvm.memcpy.p0.p0.i64(ptr align 8 %11, ptr align 8 %7, i64 16, i1 false)
  %27 = call { ptr, ptr } @_ZN4Luau19ConstraintGenerator18checkAstExprBinaryERKSt10shared_ptrINS_5ScopeEERKNS_8LocationENS_13AstExprBinary2OpEPNS_7AstExprESC_St8optionalIPKNS_4TypeEE(ptr noundef nonnull align 8 dereferenceable(472) %14, ptr noundef nonnull align 8 dereferenceable(16) %15, ptr noundef nonnull align 4 dereferenceable(16) %17, i32 noundef %20, ptr noundef %23, ptr noundef %26, ptr noundef byval(%"class.std::optional.479") align 8 %11)
  %28 = getelementptr inbounds nuw { ptr, ptr }, ptr %6, i32 0, i32 0
  %29 = extractvalue { ptr, ptr } %27, 0
  store ptr %29, ptr %28, align 8
  %30 = getelementptr inbounds nuw { ptr, ptr }, ptr %6, i32 0, i32 1
  %31 = extractvalue { ptr, ptr } %27, 1
  store ptr %31, ptr %30, align 8
  %32 = load { ptr, ptr }, ptr %6, align 8
  ret { ptr, ptr } %32
}