; Function Attrs: mustprogress uwtable
define dso_local { ptr, ptr } @_ZN4Luau19ConstraintGenerator5checkERKSt10shared_ptrINS_5ScopeEEPNS_13AstExprBinaryESt8optionalIPKNS_4TypeEE(ptr noundef nonnull align 8 dereferenceable(472) %0, ptr noundef nonnull align 8 dereferenceable(16) %1, ptr noundef readonly captures(none) %2, ptr %3, i8 %4) local_unnamed_addr #5 align 2 {
  %6 = alloca %"class.std::optional.479", align 8
  %7 = getelementptr inbounds nuw i8, ptr %2, i64 12
  %8 = getelementptr inbounds nuw i8, ptr %2, i64 28
  %9 = load i32, ptr %8, align 4, !tbaa !922
  %10 = getelementptr inbounds nuw i8, ptr %2, i64 32
  %11 = load ptr, ptr %10, align 8, !tbaa !924
  %12 = getelementptr inbounds nuw i8, ptr %2, i64 40
  %13 = load ptr, ptr %12, align 8, !tbaa !925
  store ptr %3, ptr %6, align 8
  %.sroa.2.0..sroa_idx = getelementptr inbounds nuw i8, ptr %6, i64 8
  store i8 %4, ptr %.sroa.2.0..sroa_idx, align 8
  %14 = tail call { ptr, ptr } @_ZN4Luau19ConstraintGenerator18checkAstExprBinaryERKSt10shared_ptrINS_5ScopeEERKNS_8LocationENS_13AstExprBinary2OpEPNS_7AstExprESC_St8optionalIPKNS_4TypeEE(ptr noundef nonnull align 8 dereferenceable(472) %0, ptr noundef nonnull align 8 dereferenceable(16) %1, ptr noundef nonnull align 4 dereferenceable(16) %7, i32 noundef %9, ptr noundef %11, ptr noundef %13, ptr noundef nonnull byval(%"class.std::optional.479") align 8 %6)
  ret { ptr, ptr } %14
}